; Function Attrs: mustprogress uwtable
define internal fastcc void @_ZN32pxrInternal_v0_24__pxrReserved__12_GLOBAL__N_112_GetResolverEv() unnamed_addr #0 personality ptr @__gxx_personality_v0 {
  %1 = load atomic i8, ptr @_ZGVZN32pxrInternal_v0_24__pxrReserved__12_GLOBAL__N_112_GetResolverEvE8resolver acquire, align 8
  %2 = icmp eq i8 %1, 0
  br i1 %2, label %3, label %8, !prof !4

3:                                                ; preds = %0
  %4 = tail call i32 @__cxa_guard_acquire(ptr nonnull @_ZGVZN32pxrInternal_v0_24__pxrReserved__12_GLOBAL__N_112_GetResolverEvE8resolver) #15
  %.not = icmp eq i32 %4, 0
  br i1 %.not, label %8, label %5

5:                                                ; preds = %3
  invoke fastcc void @_ZN32pxrInternal_v0_24__pxrReserved__12_GLOBAL__N_120_DispatchingResolverC2Ev()
          to label %6 unwind label %9

6:                                                ; preds = %5
  %7 = tail call i32 @__cxa_atexit(ptr nonnull @_ZN32pxrInternal_v0_24__pxrReserved__12_GLOBAL__N_120_DispatchingResolverD2Ev, ptr nonnull @_ZZN32pxrInternal_v0_24__pxrReserved__12_GLOBAL__N_112_GetResolverEvE8resolver, ptr nonnull @__dso_handle) #15
  tail call void @__cxa_guard_release(ptr nonnull @_ZGVZN32pxrInternal_v0_24__pxrReserved__12_GLOBAL__N_112_GetResolverEvE8resolver) #15
  br label %8

8:                                                ; preds = %6, %3, %0
  ret void

9:                                                ; preds = %5
  %10 = landingpad { ptr, i32 }
          cleanup
  tail call void @__cxa_guard_abort(ptr nonnull @_ZGVZN32pxrInternal_v0_24__pxrReserved__12_GLOBAL__N_112_GetResolverEvE8resolver) #15
  resume { ptr, i32 } %10
}